; Function Attrs: mustprogress nofree norecurse nosync nounwind willreturn memory(argmem: read) uwtable
define noundef zeroext i1 @_Z28haveEwaldSurfaceContributionRK10t_inputrec(ptr noundef nonnull readonly align 8 captures(none) dereferenceable(880) %0) local_unnamed_addr #15 {
  %2 = getelementptr inbounds nuw i8, ptr %0, i64 364
  %.val = load i32, ptr %2, align 4, !tbaa !581
  switch i32 %.val, label %10 [
    i32 3, label %_ZL15usingPmeOrEwaldRK22CoulombInteractionType.exit.thread
    i32 14, label %_ZL15usingPmeOrEwaldRK22CoulombInteractionType.exit.thread
    i32 13, label %_ZL15usingPmeOrEwaldRK22CoulombInteractionType.exit.thread
    i32 15, label %_ZL15usingPmeOrEwaldRK22CoulombInteractionType.exit.thread
    i32 5, label %_ZL15usingPmeOrEwaldRK22CoulombInteractionType.exit.thread
    i32 4, label %_ZL15usingPmeOrEwaldRK22CoulombInteractionType.exit.thread
  ]

_ZL15usingPmeOrEwaldRK22CoulombInteractionType.exit.thread: ; preds = %1, %1, %1, %1, %1, %1
  %3 = getelementptr inbounds nuw i8, ptr %0, i64 164
  %4 = load i32, ptr %3, align 4, !tbaa !314
  %5 = icmp eq i32 %4, 1
  br i1 %5, label %10, label %6

6:                                                ; preds = %_ZL15usingPmeOrEwaldRK22CoulombInteractionType.exit.thread
  %7 = getelementptr inbounds nuw i8, ptr %0, i64 168
  %8 = load float, ptr %7, align 8, !tbaa !315
  %9 = fcmp une float %8, 0.000000e+00
  br label %10

10:                                               ; preds = %1, %_ZL15usingPmeOrEwaldRK22CoulombInteractionType.exit.thread, %6
  %11 = phi i1 [ true, %_ZL15usingPmeOrEwaldRK22CoulombInteractionType.exit.thread ], [ %9, %6 ], [ false, %1 ]
  ret i1 %11
}